; Function Attrs: mustprogress nounwind uwtable
define hidden void @_ZN8XNMethod14log_unregisterEPK7nmethod(ptr noundef %0) local_unnamed_addr #0 align 2 {
  %2 = load volatile ptr, ptr getelementptr inbounds (i8, ptr @_ZN16LogTagSetMappingILN6LogTag4typeE49ELS1_94ELS1_0ELS1_0ELS1_0ELS1_0EE7_tagsetE, i64 56), align 8
  %.not = icmp eq ptr %2, null
  br i1 %.not, label %26, label %3

3:                                                ; preds = %1
  %4 = getelementptr inbounds i8, ptr %0, i64 72
  %5 = load ptr, ptr %4, align 8
  %6 = getelementptr inbounds i8, ptr %5, i64 8
  %7 = load ptr, ptr %6, align 8
  %8 = getelementptr inbounds i8, ptr %7, i64 8
  %9 = load ptr, ptr %8, align 8
  %10 = getelementptr inbounds i8, ptr %9, i64 24
  %11 = load ptr, ptr %10, align 8
  %12 = tail call noundef ptr @_ZNK5Klass13external_nameEv(ptr noundef nonnull align 8 dereferenceable(196) %11) #10
  %13 = load ptr, ptr %4, align 8
  %14 = getelementptr inbounds i8, ptr %13, i64 8
  %15 = load ptr, ptr %14, align 8
  %16 = getelementptr inbounds i8, ptr %15, i64 8
  %17 = load ptr, ptr %16, align 8
  %18 = getelementptr inbounds i8, ptr %15, i64 36
  %19 = load i16, ptr %18, align 4
  %20 = getelementptr inbounds i8, ptr %17, i64 72
  %21 = zext i16 %19 to i64
  %22 = getelementptr inbounds i64, ptr %20, i64 %21
  %23 = load ptr, ptr %22, align 8
  %24 = tail call noundef ptr @_ZNK6Symbol11as_C_stringEv(ptr noundef nonnull align 4 dereferenceable(8) %23) #10
  %25 = ptrtoint ptr %0 to i64
  tail call void (ptr, ...) @_ZN13LogTargetImplILN8LogLevel4typeE2ELN6LogTag4typeE49ELS3_94ELS3_0ELS3_0ELS3_0ELS3_0EE5printEPKcz(ptr noundef nonnull @.str.9, ptr noundef %12, ptr noundef %24, i64 noundef %25)
  br label %26

26:                                               ; preds = %1, %3
  ret void
}